; Function Attrs: mustprogress uwtable
define void @_ZN8proxygen22PersistentQuicPskCacheC2ERKNSt7__cxx1112basic_stringIcSt11char_traitsIcESaIcEEEN6wangle21PersistentCacheConfigESt10unique_ptrIN4fizz7FactoryESt14default_deleteISD_EE(ptr noundef nonnull align 8 dereferenceable(48) %this, ptr noundef nonnull align 8 dereferenceable(32) %filename, ptr nocapture noundef %config, ptr nocapture noundef %factory) unnamed_addr #0 align 2 personality ptr @__gxx_personality_v0 {
entry:
  %agg.tmp = alloca %"struct.wangle::PersistentCacheConfig", align 8
  store ptr getelementptr inbounds ({ [7 x ptr] }, ptr @_ZTVN8proxygen22PersistentQuicPskCacheE, i64 0, i32 0, i64 2), ptr %this, align 8
  %cache_ = getelementptr inbounds i8, ptr %this, i64 8
  call void @llvm.memcpy.p0.p0.i64(ptr noundef nonnull align 8 dereferenceable(20) %agg.tmp, ptr noundef nonnull align 8 dereferenceable(20) %config, i64 20, i1 false)
  %executor.i = getelementptr inbounds i8, ptr %agg.tmp, i64 24
  %executor3.i = getelementptr inbounds i8, ptr %config, i64 24
  %_M_refcount4.i.i.i = getelementptr inbounds i8, ptr %config, i64 32
  %0 = load <2 x ptr>, ptr %executor3.i, align 8
  store ptr null, ptr %_M_refcount4.i.i.i, align 8
  store <2 x ptr> %0, ptr %executor.i, align 8
  store ptr null, ptr %executor3.i, align 8
  %inlinePersistenceLoading.i = getelementptr inbounds i8, ptr %agg.tmp, i64 40
  %inlinePersistenceLoading4.i = getelementptr inbounds i8, ptr %config, i64 40
  %1 = load i8, ptr %inlinePersistenceLoading4.i, align 8
  %2 = and i8 %1, 1
  store i8 %2, ptr %inlinePersistenceLoading.i, align 8
  invoke void @_ZN6wangle19FilePersistentCacheINSt7__cxx1112basic_stringIcSt11char_traitsIcESaIcEEEN8proxygen23PersistentQuicCachedPskESt5mutexEC2ERKS6_NS_21PersistentCacheConfigE(ptr noundef nonnull align 8 dereferenceable(24) %cache_, ptr noundef nonnull align 8 dereferenceable(32) %filename, ptr noundef nonnull %agg.tmp)
          to label %invoke.cont unwind label %lpad

invoke.cont:                                      ; preds = %entry
  %_M_refcount.i.i.i = getelementptr inbounds i8, ptr %agg.tmp, i64 32
  %3 = load ptr, ptr %_M_refcount.i.i.i, align 8
  %cmp.not.i.i.i.i = icmp eq ptr %3, null
  br i1 %cmp.not.i.i.i.i, label %_ZN6wangle21PersistentCacheConfigD2Ev.exit, label %if.then.i.i.i.i

if.then.i.i.i.i:                                  ; preds = %invoke.cont
  %_M_use_count.i.i.i.i.i = getelementptr inbounds i8, ptr %3, i64 8
  %4 = load atomic i64, ptr %_M_use_count.i.i.i.i.i acquire, align 8
  %cmp.i.i.i.i.i = icmp eq i64 %4, 4294967297
  %5 = trunc i64 %4 to i32
  br i1 %cmp.i.i.i.i.i, label %if.then.i.i.i.i.i, label %if.end.i.i.i.i.i

if.then.i.i.i.i.i:                                ; preds = %if.then.i.i.i.i
  store i32 0, ptr %_M_use_count.i.i.i.i.i, align 8
  %_M_weak_count.i.i.i.i.i = getelementptr inbounds i8, ptr %3, i64 12
  store i32 0, ptr %_M_weak_count.i.i.i.i.i, align 4
  %vtable.i.i.i.i.i = load ptr, ptr %3, align 8
  %vfn.i.i.i.i.i = getelementptr inbounds i8, ptr %vtable.i.i.i.i.i, i64 16
  %6 = load ptr, ptr %vfn.i.i.i.i.i, align 8
  call void %6(ptr noundef nonnull align 8 dereferenceable(16) %3) #26
  br label %if.end8.sink.split.i.i.i.i.i

if.end.i.i.i.i.i:                                 ; preds = %if.then.i.i.i.i
  %7 = load i8, ptr @__libc_single_threaded, align 1
  %tobool.i.not.i.i.i.i.i = icmp eq i8 %7, 0
  br i1 %tobool.i.not.i.i.i.i.i, label %if.else.i.i.i.i.i.i, label %if.then.i.i.i.i.i.i

if.then.i.i.i.i.i.i:                              ; preds = %if.end.i.i.i.i.i
  %add.i.i.i.i.i.i = add nsw i32 %5, -1
  store i32 %add.i.i.i.i.i.i, ptr %_M_use_count.i.i.i.i.i, align 4
  br label %_ZN9__gnu_cxx27__exchange_and_add_dispatchEPii.exit.i.i.i.i.i

if.else.i.i.i.i.i.i:                              ; preds = %if.end.i.i.i.i.i
  %8 = atomicrmw volatile add ptr %_M_use_count.i.i.i.i.i, i32 -1 acq_rel, align 4
  br label %_ZN9__gnu_cxx27__exchange_and_add_dispatchEPii.exit.i.i.i.i.i

_ZN9__gnu_cxx27__exchange_and_add_dispatchEPii.exit.i.i.i.i.i: ; preds = %if.else.i.i.i.i.i.i, %if.then.i.i.i.i.i.i
  %retval.i.0.i.i.i.i.i = phi i32 [ %5, %if.then.i.i.i.i.i.i ], [ %8, %if.else.i.i.i.i.i.i ]
  %cmp6.i.i.i.i.i = icmp eq i32 %retval.i.0.i.i.i.i.i, 1
  br i1 %cmp6.i.i.i.i.i, label %if.then7.i.i.i.i.i, label %_ZN6wangle21PersistentCacheConfigD2Ev.exit

if.then7.i.i.i.i.i:                               ; preds = %_ZN9__gnu_cxx27__exchange_and_add_dispatchEPii.exit.i.i.i.i.i
  %vtable.i.i.i.i.i.i.i = load ptr, ptr %3, align 8
  %vfn.i.i.i.i.i.i.i = getelementptr inbounds i8, ptr %vtable.i.i.i.i.i.i.i, i64 16
  %9 = load ptr, ptr %vfn.i.i.i.i.i.i.i, align 8
  call void %9(ptr noundef nonnull align 8 dereferenceable(16) %3) #26
  %_M_weak_count.i.i.i.i.i.i.i = getelementptr inbounds i8, ptr %3, i64 12
  %10 = load i8, ptr @__libc_single_threaded, align 1
  %tobool.i.not.i.i.i.i.i.i.i = icmp eq i8 %10, 0
  br i1 %tobool.i.not.i.i.i.i.i.i.i, label %if.else.i.i.i.i.i.i.i.i, label %if.then.i.i.i.i.i.i.i.i

if.then.i.i.i.i.i.i.i.i:                          ; preds = %if.then7.i.i.i.i.i
  %11 = load i32, ptr %_M_weak_count.i.i.i.i.i.i.i, align 4
  %add.i.i.i.i.i.i.i.i = add nsw i32 %11, -1
  store i32 %add.i.i.i.i.i.i.i.i, ptr %_M_weak_count.i.i.i.i.i.i.i, align 4
  br label %_ZN9__gnu_cxx27__exchange_and_add_dispatchEPii.exit.i.i.i.i.i.i.i

if.else.i.i.i.i.i.i.i.i:                          ; preds = %if.then7.i.i.i.i.i
  %12 = atomicrmw volatile add ptr %_M_weak_count.i.i.i.i.i.i.i, i32 -1 acq_rel, align 4
  br label %_ZN9__gnu_cxx27__exchange_and_add_dispatchEPii.exit.i.i.i.i.i.i.i

_ZN9__gnu_cxx27__exchange_and_add_dispatchEPii.exit.i.i.i.i.i.i.i: ; preds = %if.else.i.i.i.i.i.i.i.i, %if.then.i.i.i.i.i.i.i.i
  %retval.i.0.i.i.i.i.i.i.i = phi i32 [ %11, %if.then.i.i.i.i.i.i.i.i ], [ %12, %if.else.i.i.i.i.i.i.i.i ]
  %cmp.i.i.i.i.i.i.i = icmp eq i32 %retval.i.0.i.i.i.i.i.i.i, 1
  br i1 %cmp.i.i.i.i.i.i.i, label %if.end8.sink.split.i.i.i.i.i, label %_ZN6wangle21PersistentCacheConfigD2Ev.exit

if.end8.sink.split.i.i.i.i.i:                     ; preds = %_ZN9__gnu_cxx27__exchange_and_add_dispatchEPii.exit.i.i.i.i.i.i.i, %if.then.i.i.i.i.i
  %vtable2.i.i.i.i.i.i.i = load ptr, ptr %3, align 8
  %vfn3.i.i.i.i.i.i.i = getelementptr inbounds i8, ptr %vtable2.i.i.i.i.i.i.i, i64 24
  %13 = load ptr, ptr %vfn3.i.i.i.i.i.i.i, align 8
  call void %13(ptr noundef nonnull align 8 dereferenceable(16) %3) #26
  br label %_ZN6wangle21PersistentCacheConfigD2Ev.exit

_ZN6wangle21PersistentCacheConfigD2Ev.exit:       ; preds = %invoke.cont, %_ZN9__gnu_cxx27__exchange_and_add_dispatchEPii.exit.i.i.i.i.i, %_ZN9__gnu_cxx27__exchange_and_add_dispatchEPii.exit.i.i.i.i.i.i.i, %if.end8.sink.split.i.i.i.i.i
  %maxPskUses_ = getelementptr inbounds i8, ptr %this, i64 32
  store i64 5, ptr %maxPskUses_, align 8
  %factory_ = getelementptr inbounds i8, ptr %this, i64 40
  %14 = load i64, ptr %factory, align 8
  store i64 %14, ptr %factory_, align 8
  store ptr null, ptr %factory, align 8
  ret void

lpad:                                             ; preds = %entry
  %15 = landingpad { ptr, i32 }
          cleanup
  call void @_ZN6wangle21PersistentCacheConfigD2Ev(ptr noundef nonnull align 8 dereferenceable(41) %agg.tmp) #26
  resume { ptr, i32 } %15
}